target datalayout = "e-m:e-p270:32:32-p271:32:32-p272:64:64-i64:64-i128:128-f80:128-n8:16:32:64-S128"
target triple = "x86_64-pc-linux-gnu"

; Function Attrs: alwaysinline nounwind uwtable
define internal void @interleave_10bit(ptr noundef %0, ptr noundef %1, ptr noundef %2, i32 noundef %3, i32 noundef %4, i32 noundef %5) #4 {
  %7 = alloca ptr, align 8
  %8 = alloca ptr, align 8
  %9 = alloca ptr, align 8
  %10 = alloca i32, align 4
  %11 = alloca i32, align 4
  %12 = alloca i32, align 4
  %13 = alloca i32, align 4
  store ptr %0, ptr %7, align 8, !tbaa !91
  store ptr %1, ptr %8, align 8, !tbaa !91
  store ptr %2, ptr %9, align 8, !tbaa !91
  store i32 %3, ptr %10, align 4, !tbaa !11
  store i32 %4, ptr %11, align 4, !tbaa !11
  store i32 %5, ptr %12, align 4, !tbaa !11
  call void @llvm.lifetime.start.p0(i64 4, ptr %13) #5
  store i32 0, ptr %13, align 4, !tbaa !11
  br label %14

14:                                               ; preds = %48, %6
  %15 = load i32, ptr %13, align 4, !tbaa !11
  %16 = load i32, ptr %10, align 4, !tbaa !11
  %17 = icmp slt i32 %15, %16
  br i1 %17, label %18, label %51

18:                                               ; preds = %14
  %19 = load ptr, ptr %8, align 8, !tbaa !91
  %20 = load i32, ptr %13, align 4, !tbaa !11
  %21 = sext i32 %20 to i64
  %22 = getelementptr inbounds i32, ptr %19, i64 %21
  %23 = load i32, ptr %22, align 4, !tbaa !11
  %24 = load i32, ptr %11, align 4, !tbaa !11
  %25 = add i32 %23, %24
  %26 = load i32, ptr %12, align 4, !tbaa !11
  %27 = ashr i32 %25, %26
  %28 = load ptr, ptr %7, align 8, !tbaa !91
  %29 = load i32, ptr %13, align 4, !tbaa !11
  %30 = mul nsw i32 2, %29
  %31 = sext i32 %30 to i64
  %32 = getelementptr inbounds i32, ptr %28, i64 %31
  store i32 %27, ptr %32, align 4, !tbaa !11
  %33 = load ptr, ptr %9, align 8, !tbaa !91
  %34 = load i32, ptr %13, align 4, !tbaa !11
  %35 = sext i32 %34 to i64
  %36 = getelementptr inbounds i32, ptr %33, i64 %35
  %37 = load i32, ptr %36, align 4, !tbaa !11
  %38 = load i32, ptr %11, align 4, !tbaa !11
  %39 = add i32 %37, %38
  %40 = load i32, ptr %12, align 4, !tbaa !11
  %41 = ashr i32 %39, %40
  %42 = load ptr, ptr %7, align 8, !tbaa !91
  %43 = load i32, ptr %13, align 4, !tbaa !11
  %44 = mul nsw i32 2, %43
  %45 = add nsw i32 %44, 1
  %46 = sext i32 %45 to i64
  %47 = getelementptr inbounds i32, ptr %42, i64 %46
  store i32 %41, ptr %47, align 4, !tbaa !11
  br label %48

48:                                               ; preds = %18
  %49 = load i32, ptr %13, align 4, !tbaa !11
  %50 = add nsw i32 %49, 1
  store i32 %50, ptr %13, align 4, !tbaa !11
  br label %14, !llvm.loop !124

51:                                               ; preds = %14
  call void @llvm.lifetime.end.p0(i64 4, ptr %13) #5
  ret void
}

; Function Attrs: alwaysinline nounwind uwtable
define internal void @horizontal_compose_haari_10bit(ptr noundef %0, ptr noundef %1, i32 noundef %2, i32 noundef %3) #4 {
  %5 = alloca ptr, align 8
  %6 = alloca ptr, align 8
  %7 = alloca i32, align 4
  %8 = alloca i32, align 4
  %9 = alloca i32, align 4
  %10 = alloca i32, align 4
  store ptr %0, ptr %5, align 8, !tbaa !91
  store ptr %1, ptr %6, align 8, !tbaa !91
  store i32 %2, ptr %7, align 4, !tbaa !11
  store i32 %3, ptr %8, align 4, !tbaa !11
  call void @llvm.lifetime.start.p0(i64 4, ptr %9) #5
  %11 = load i32, ptr %7, align 4, !tbaa !11
  %12 = ashr i32 %11, 1
  store i32 %12, ptr %9, align 4, !tbaa !11
  call void @llvm.lifetime.start.p0(i64 4, ptr %10) #5
  store i32 0, ptr %10, align 4, !tbaa !11
  br label %13

13:                                               ; preds = %56, %4
  %14 = load i32, ptr %10, align 4, !tbaa !11
  %15 = load i32, ptr %9, align 4, !tbaa !11
  %16 = icmp slt i32 %14, %15
  br i1 %16, label %17, label %59

17:                                               ; preds = %13
  %18 = load ptr, ptr %5, align 8, !tbaa !91
  %19 = load i32, ptr %10, align 4, !tbaa !11
  %20 = sext i32 %19 to i64
  %21 = getelementptr inbounds i32, ptr %18, i64 %20
  %22 = load i32, ptr %21, align 4, !tbaa !11
  %23 = load ptr, ptr %5, align 8, !tbaa !91
  %24 = load i32, ptr %10, align 4, !tbaa !11
  %25 = load i32, ptr %9, align 4, !tbaa !11
  %26 = add nsw i32 %24, %25
  %27 = sext i32 %26 to i64
  %28 = getelementptr inbounds i32, ptr %23, i64 %27
  %29 = load i32, ptr %28, align 4, !tbaa !11
  %30 = add i32 %29, 1
  %31 = ashr i32 %30, 1
  %32 = sub i32 %22, %31
  %33 = load ptr, ptr %6, align 8, !tbaa !91
  %34 = load i32, ptr %10, align 4, !tbaa !11
  %35 = sext i32 %34 to i64
  %36 = getelementptr inbounds i32, ptr %33, i64 %35
  store i32 %32, ptr %36, align 4, !tbaa !11
  %37 = load ptr, ptr %5, align 8, !tbaa !91
  %38 = load i32, ptr %10, align 4, !tbaa !11
  %39 = load i32, ptr %9, align 4, !tbaa !11
  %40 = add nsw i32 %38, %39
  %41 = sext i32 %40 to i64
  %42 = getelementptr inbounds i32, ptr %37, i64 %41
  %43 = load i32, ptr %42, align 4, !tbaa !11
  %44 = load ptr, ptr %6, align 8, !tbaa !91
  %45 = load i32, ptr %10, align 4, !tbaa !11
  %46 = sext i32 %45 to i64
  %47 = getelementptr inbounds i32, ptr %44, i64 %46
  %48 = load i32, ptr %47, align 4, !tbaa !11
  %49 = add i32 %43, %48
  %50 = load ptr, ptr %6, align 8, !tbaa !91
  %51 = load i32, ptr %10, align 4, !tbaa !11
  %52 = load i32, ptr %9, align 4, !tbaa !11
  %53 = add nsw i32 %51, %52
  %54 = sext i32 %53 to i64
  %55 = getelementptr inbounds i32, ptr %50, i64 %54
  store i32 %49, ptr %55, align 4, !tbaa !11
  br label %56

56:                                               ; preds = %17
  %57 = load i32, ptr %10, align 4, !tbaa !11
  %58 = add nsw i32 %57, 1
  store i32 %58, ptr %10, align 4, !tbaa !11
  br label %13, !llvm.loop !125

59:                                               ; preds = %13
  %60 = load ptr, ptr %5, align 8, !tbaa !91
  %61 = load ptr, ptr %6, align 8, !tbaa !91
  %62 = load ptr, ptr %6, align 8, !tbaa !91
  %63 = load i32, ptr %9, align 4, !tbaa !11
  %64 = sext i32 %63 to i64
  %65 = getelementptr inbounds i32, ptr %62, i64 %64
  %66 = load i32, ptr %9, align 4, !tbaa !11
  %67 = load i32, ptr %8, align 4, !tbaa !11
  %68 = load i32, ptr %8, align 4, !tbaa !11
  call void @interleave_10bit(ptr noundef %60, ptr noundef %61, ptr noundef %65, i32 noundef %66, i32 noundef %67, i32 noundef %68)
  call void @llvm.lifetime.end.p0(i64 4, ptr %10) #5
  call void @llvm.lifetime.end.p0(i64 4, ptr %9) #5
  ret void
}

; Function Attrs: nounwind uwtable
define internal void @horizontal_compose_haar1i_10bit(ptr noundef %0, ptr noundef %1, i32 noundef %2) #0 {
  %4 = alloca ptr, align 8
  %5 = alloca ptr, align 8
  %6 = alloca i32, align 4
  %7 = alloca ptr, align 8
  %8 = alloca ptr, align 8
  store ptr %0, ptr %4, align 8, !tbaa !44
  store ptr %1, ptr %5, align 8, !tbaa !44
  store i32 %2, ptr %6, align 4, !tbaa !11
  call void @llvm.lifetime.start.p0(i64 8, ptr %7) #5
  %9 = load ptr, ptr %4, align 8, !tbaa !44
  store ptr %9, ptr %7, align 8, !tbaa !91
  call void @llvm.lifetime.start.p0(i64 8, ptr %8) #5
  %10 = load ptr, ptr %5, align 8, !tbaa !44
  store ptr %10, ptr %8, align 8, !tbaa !91
  %11 = load ptr, ptr %7, align 8, !tbaa !91
  %12 = load ptr, ptr %8, align 8, !tbaa !91
  %13 = load i32, ptr %6, align 4, !tbaa !11
  call void @horizontal_compose_haari_10bit(ptr noundef %11, ptr noundef %12, i32 noundef %13, i32 noundef 1)
  call void @llvm.lifetime.end.p0(i64 8, ptr %8) #5
  call void @llvm.lifetime.end.p0(i64 8, ptr %7) #5
  ret void
}